; Function Attrs: nounwind uwtable
define dso_local void @SnapBuildSnapDecRefcount(ptr noundef %0) local_unnamed_addr #0 {
  %2 = getelementptr inbounds nuw i8, ptr %0, i64 46
  %3 = load i8, ptr %2, align 2, !range !4, !noundef !5
  %4 = trunc nuw i8 %3 to i1
  br i1 %4, label %5, label %8

5:                                                ; preds = %1
  %6 = tail call zeroext i1 @errstart_cold(i32 noundef 21, ptr noundef null) #15
  tail call void @llvm.assume(i1 %6)
  %7 = tail call i32 (ptr, ...) @errmsg_internal(ptr noundef nonnull @.str.1) #14
  tail call void @errfinish(ptr noundef nonnull @.str.2, i32 noundef 344, ptr noundef nonnull @__func__.SnapBuildSnapDecRefcount) #14
  unreachable

8:                                                ; preds = %1
  %9 = getelementptr inbounds nuw i8, ptr %0, i64 64
  %10 = load i32, ptr %9, align 8
  %11 = add i32 %10, -1
  store i32 %11, ptr %9, align 8
  %12 = icmp eq i32 %11, 0
  br i1 %12, label %SnapBuildFreeSnapshot.exit, label %13

SnapBuildFreeSnapshot.exit:                       ; preds = %8
  tail call void @pfree(ptr noundef nonnull %0) #14
  br label %13

13:                                               ; preds = %SnapBuildFreeSnapshot.exit, %8
  ret void
}